target datalayout = "e-m:e-p270:32:32-p271:32:32-p272:64:64-i64:64-i128:128-f80:128-n8:16:32:64-S128"
target triple = "x86_64-pc-linux-gnu"

%union.EX_STYPE = type { ptr }
%struct.Exnode_s = type { i64, i64, i8, %union.anon, %union.Exdata_u, i32 }
%union.anon = type { ptr }
%union.Exdata_u = type { %struct.anon.2 }
%struct.anon.2 = type { ptr, ptr, ptr, ptr }
%struct.Expr_s = type { ptr, ptr, [10 x ptr], ptr, ptr, ptr, ptr, ptr, ptr, %struct.agxbuf, %union.EX_STYPE, %struct.Exid_s, [512 x i8], ptr, i32, i32, i32, i64, i64, i32 }
%struct.agxbuf = type { %union.anon.10 }
%union.anon.10 = type { %struct.anon.11 }
%struct.anon.11 = type { ptr, i64, i64, [7 x i8], i8 }
%struct.Exid_s = type { %struct.dtlink_s_, i64, i64, i64, i64, ptr, ptr, [32 x i8] }
%struct.dtlink_s_ = type { ptr, %union.anon.12 }
%union.anon.12 = type { ptr }
%struct.anon.0 = type { ptr, ptr }
%struct.Fmt_t = type { %struct._sffmt_s, ptr, ptr, ptr, %union.EX_STYPE, ptr }
%struct._sffmt_s = type { ptr, ptr, i32, i64, i32, i32, i32, i32, ptr, i64 }
%struct.anon.6 = type { ptr, ptr }
%struct.Print_s = type { ptr, ptr, [3 x ptr], ptr }

@.str.29 = private unnamed_addr constant [33 x i8] c"printf: %lld: invalid descriptor\00", align 1
@.str.30 = private unnamed_addr constant [36 x i8] c"(s)printf: \22%s\22: too many arguments\00", align 1

; Function Attrs: nounwind uwtable
define internal i32 @print(ptr noundef %0, ptr noundef %1, ptr noundef %2, ptr noundef %3) #0 {
  %5 = alloca i32, align 4
  %6 = alloca ptr, align 8
  %7 = alloca ptr, align 8
  %8 = alloca ptr, align 8
  %9 = alloca ptr, align 8
  %10 = alloca ptr, align 8
  %11 = alloca %union.EX_STYPE, align 8
  %12 = alloca %struct.Fmt_t, align 8
  %13 = alloca %union.EX_STYPE, align 8
  %14 = alloca i32, align 4
  %15 = alloca %union.EX_STYPE, align 8
  store ptr %0, ptr %6, align 8, !tbaa !3
  store ptr %1, ptr %7, align 8, !tbaa !8
  store ptr %2, ptr %8, align 8, !tbaa !10
  store ptr %3, ptr %9, align 8, !tbaa !50
  call void @llvm.lifetime.start.p0(i64 8, ptr %10) #15
  call void @llvm.lifetime.start.p0(i64 8, ptr %11) #15
  call void @llvm.lifetime.start.p0(i64 104, ptr %12) #15
  %16 = load ptr, ptr %9, align 8, !tbaa !50
  %17 = icmp ne ptr %16, null
  br i1 %17, label %49, label %18

18:                                               ; preds = %4
  call void @llvm.lifetime.start.p0(i64 8, ptr %13) #15
  %19 = load ptr, ptr %6, align 8, !tbaa !3
  %20 = load ptr, ptr %7, align 8, !tbaa !8
  %21 = getelementptr inbounds nuw %struct.Exnode_s, ptr %20, i32 0, i32 4
  %22 = getelementptr inbounds nuw %struct.anon.6, ptr %21, i32 0, i32 0
  %23 = load ptr, ptr %22, align 8, !tbaa !11
  %24 = load ptr, ptr %8, align 8, !tbaa !10
  %25 = call ptr @eval(ptr noundef %19, ptr noundef %23, ptr noundef %24)
  %26 = getelementptr inbounds nuw %union.EX_STYPE, ptr %13, i32 0, i32 0
  store ptr %25, ptr %26, align 8
  call void @llvm.memcpy.p0.p0.i64(ptr align 8 %11, ptr align 8 %13, i64 8, i1 false), !tbaa.struct !34
  call void @llvm.lifetime.end.p0(i64 8, ptr %13) #15
  %27 = load i64, ptr %11, align 8, !tbaa !11
  %28 = icmp slt i64 %27, 0
  br i1 %28, label %46, label %29

29:                                               ; preds = %18
  %30 = load i64, ptr %11, align 8, !tbaa !11
  %31 = icmp sge i64 %30, 10
  br i1 %31, label %46, label %32

32:                                               ; preds = %29
  %33 = load ptr, ptr %6, align 8, !tbaa !3
  %34 = getelementptr inbounds nuw %struct.Expr_s, ptr %33, i32 0, i32 2
  %35 = load i64, ptr %11, align 8, !tbaa !11
  %36 = getelementptr inbounds [10 x ptr], ptr %34, i64 0, i64 %35
  %37 = load ptr, ptr %36, align 8, !tbaa !50
  store ptr %37, ptr %9, align 8, !tbaa !50
  %38 = icmp ne ptr %37, null
  br i1 %38, label %48, label %39

39:                                               ; preds = %32
  %40 = call noalias ptr @tmpfile()
  %41 = load ptr, ptr %6, align 8, !tbaa !3
  %42 = getelementptr inbounds nuw %struct.Expr_s, ptr %41, i32 0, i32 2
  %43 = load i64, ptr %11, align 8, !tbaa !11
  %44 = getelementptr inbounds [10 x ptr], ptr %42, i64 0, i64 %43
  store ptr %40, ptr %44, align 8, !tbaa !50
  store ptr %40, ptr %9, align 8, !tbaa !50
  %45 = icmp ne ptr %40, null
  br i1 %45, label %48, label %46

46:                                               ; preds = %39, %29, %18
  %47 = load i64, ptr %11, align 8, !tbaa !11
  call void (ptr, ...) @exerror(ptr noundef @.str.29, i64 noundef %47)
  store i32 -1, ptr %5, align 4
  store i32 1, ptr %14, align 4
  br label %127

48:                                               ; preds = %39, %32
  br label %49

49:                                               ; preds = %48, %4
  call void @llvm.memset.p0.i64(ptr align 8 %12, i8 0, i64 104, i1 false)
  %50 = getelementptr inbounds nuw %struct.Fmt_t, ptr %12, i32 0, i32 0
  %51 = getelementptr inbounds nuw %struct._sffmt_s, ptr %50, i32 0, i32 0
  store ptr @prformat, ptr %51, align 8, !tbaa !91
  %52 = load ptr, ptr %6, align 8, !tbaa !3
  %53 = getelementptr inbounds nuw %struct.Fmt_t, ptr %12, i32 0, i32 1
  store ptr %52, ptr %53, align 8, !tbaa !95
  %54 = load ptr, ptr %8, align 8, !tbaa !10
  %55 = getelementptr inbounds nuw %struct.Fmt_t, ptr %12, i32 0, i32 2
  store ptr %54, ptr %55, align 8, !tbaa !96
  %56 = load ptr, ptr %7, align 8, !tbaa !8
  %57 = getelementptr inbounds nuw %struct.Exnode_s, ptr %56, i32 0, i32 4
  %58 = getelementptr inbounds nuw %struct.anon.6, ptr %57, i32 0, i32 1
  %59 = load ptr, ptr %58, align 8, !tbaa !11
  store ptr %59, ptr %10, align 8, !tbaa !97
  %60 = load ptr, ptr %10, align 8, !tbaa !97
  %61 = getelementptr inbounds nuw %struct.Print_s, ptr %60, i32 0, i32 1
  %62 = load ptr, ptr %61, align 8, !tbaa !98
  %63 = icmp ne ptr %62, null
  br i1 %63, label %64, label %94

64:                                               ; preds = %49
  br label %65

65:                                               ; preds = %88, %64
  %66 = load ptr, ptr %10, align 8, !tbaa !97
  %67 = getelementptr inbounds nuw %struct.Print_s, ptr %66, i32 0, i32 3
  %68 = load ptr, ptr %67, align 8, !tbaa !100
  %69 = icmp ne ptr %68, null
  br i1 %69, label %70, label %81

70:                                               ; preds = %65
  %71 = load ptr, ptr %10, align 8, !tbaa !97
  %72 = getelementptr inbounds nuw %struct.Print_s, ptr %71, i32 0, i32 1
  %73 = load ptr, ptr %72, align 8, !tbaa !98
  %74 = getelementptr inbounds nuw %struct.Fmt_t, ptr %12, i32 0, i32 0
  %75 = getelementptr inbounds nuw %struct._sffmt_s, ptr %74, i32 0, i32 1
  store ptr %73, ptr %75, align 8, !tbaa !101
  %76 = load ptr, ptr %10, align 8, !tbaa !97
  %77 = getelementptr inbounds nuw %struct.Fmt_t, ptr %12, i32 0, i32 3
  store ptr %76, ptr %77, align 8, !tbaa !102
  %78 = load ptr, ptr %9, align 8, !tbaa !50
  %79 = getelementptr inbounds nuw %struct.Fmt_t, ptr %12, i32 0, i32 0
  %80 = call i32 @sfprint(ptr noundef %78, ptr noundef %79)
  br label %87

81:                                               ; preds = %65
  %82 = load ptr, ptr %10, align 8, !tbaa !97
  %83 = getelementptr inbounds nuw %struct.Print_s, ptr %82, i32 0, i32 1
  %84 = load ptr, ptr %83, align 8, !tbaa !98
  %85 = load ptr, ptr %9, align 8, !tbaa !50
  %86 = call i32 @fputs(ptr noundef %84, ptr noundef %85)
  br label %87

87:                                               ; preds = %81, %70
  br label %88

88:                                               ; preds = %87
  %89 = load ptr, ptr %10, align 8, !tbaa !97
  %90 = getelementptr inbounds nuw %struct.Print_s, ptr %89, i32 0, i32 0
  %91 = load ptr, ptr %90, align 8, !tbaa !103
  store ptr %91, ptr %10, align 8, !tbaa !97
  %92 = icmp ne ptr %91, null
  br i1 %92, label %65, label %93, !llvm.loop !104

93:                                               ; preds = %88
  br label %126

94:                                               ; preds = %49
  call void @llvm.lifetime.start.p0(i64 8, ptr %15) #15
  %95 = load ptr, ptr %6, align 8, !tbaa !3
  %96 = load ptr, ptr %10, align 8, !tbaa !97
  %97 = getelementptr inbounds nuw %struct.Print_s, ptr %96, i32 0, i32 3
  %98 = load ptr, ptr %97, align 8, !tbaa !100
  %99 = getelementptr inbounds nuw %struct.Exnode_s, ptr %98, i32 0, i32 4
  %100 = getelementptr inbounds nuw %struct.anon.0, ptr %99, i32 0, i32 0
  %101 = load ptr, ptr %100, align 8, !tbaa !11
  %102 = load ptr, ptr %8, align 8, !tbaa !10
  %103 = call ptr @eval(ptr noundef %95, ptr noundef %101, ptr noundef %102)
  %104 = getelementptr inbounds nuw %union.EX_STYPE, ptr %15, i32 0, i32 0
  store ptr %103, ptr %104, align 8
  call void @llvm.memcpy.p0.p0.i64(ptr align 8 %11, ptr align 8 %15, i64 8, i1 false), !tbaa.struct !34
  call void @llvm.lifetime.end.p0(i64 8, ptr %15) #15
  %105 = load ptr, ptr %11, align 8, !tbaa !11
  %106 = getelementptr inbounds nuw %struct.Fmt_t, ptr %12, i32 0, i32 0
  %107 = getelementptr inbounds nuw %struct._sffmt_s, ptr %106, i32 0, i32 1
  store ptr %105, ptr %107, align 8, !tbaa !101
  %108 = load ptr, ptr %10, align 8, !tbaa !97
  %109 = getelementptr inbounds nuw %struct.Print_s, ptr %108, i32 0, i32 3
  %110 = load ptr, ptr %109, align 8, !tbaa !100
  %111 = getelementptr inbounds nuw %struct.Fmt_t, ptr %12, i32 0, i32 5
  store ptr %110, ptr %111, align 8, !tbaa !105
  %112 = load ptr, ptr %9, align 8, !tbaa !50
  %113 = getelementptr inbounds nuw %struct.Fmt_t, ptr %12, i32 0, i32 0
  %114 = call i32 @sfprint(ptr noundef %112, ptr noundef %113)
  %115 = getelementptr inbounds nuw %struct.Fmt_t, ptr %12, i32 0, i32 5
  %116 = load ptr, ptr %115, align 8, !tbaa !105
  %117 = getelementptr inbounds nuw %struct.Exnode_s, ptr %116, i32 0, i32 4
  %118 = getelementptr inbounds nuw %struct.anon.0, ptr %117, i32 0, i32 1
  %119 = load ptr, ptr %118, align 8, !tbaa !11
  %120 = icmp ne ptr %119, null
  br i1 %120, label %121, label %125

121:                                              ; preds = %94
  %122 = getelementptr inbounds nuw %struct.Fmt_t, ptr %12, i32 0, i32 0
  %123 = getelementptr inbounds nuw %struct._sffmt_s, ptr %122, i32 0, i32 1
  %124 = load ptr, ptr %123, align 8, !tbaa !101
  call void (ptr, ...) @exerror(ptr noundef @.str.30, ptr noundef %124)
  br label %125

125:                                              ; preds = %121, %94
  br label %126

126:                                              ; preds = %125, %93
  store i32 0, ptr %5, align 4
  store i32 1, ptr %14, align 4
  br label %127

127:                                              ; preds = %126, %46
  call void @llvm.lifetime.end.p0(i64 104, ptr %12) #15
  call void @llvm.lifetime.end.p0(i64 8, ptr %11) #15
  call void @llvm.lifetime.end.p0(i64 8, ptr %10) #15
  %128 = load i32, ptr %5, align 4
  ret i32 %128
}