; Function Attrs: nounwind uwtable
define internal fastcc range(i32 -1, 1) i32 @print(ptr noundef %0, ptr noundef nonnull readonly captures(none) %1, ptr noundef %2, ptr noundef %3) unnamed_addr #0 {
  %5 = alloca %struct.Fmt_t, align 8
  call void @llvm.lifetime.start.p0(i64 104, ptr nonnull %5) #25
  %.not = icmp eq ptr %3, null
  br i1 %.not, label %6, label %20

6:                                                ; preds = %4
  %7 = getelementptr inbounds nuw i8, ptr %1, i64 32
  %8 = load ptr, ptr %7, align 8, !tbaa !3
  %9 = tail call fastcc ptr @eval(ptr noundef %0, ptr noundef %8, ptr noundef %2)
  %10 = ptrtoint ptr %9 to i64
  %11 = icmp slt ptr %9, null
  %12 = icmp sgt ptr %9, inttoptr (i64 9 to ptr)
  %or.cond = or i1 %11, %12
  br i1 %or.cond, label %19, label %13

13:                                               ; preds = %6
  %14 = getelementptr inbounds nuw i8, ptr %0, i64 16
  %15 = getelementptr inbounds nuw [10 x ptr], ptr %14, i64 0, i64 %10
  %16 = load ptr, ptr %15, align 8, !tbaa !45
  %.not36 = icmp eq ptr %16, null
  br i1 %.not36, label %17, label %20

17:                                               ; preds = %13
  %18 = tail call noalias ptr @tmpfile()
  store ptr %18, ptr %15, align 8, !tbaa !45
  %.not37 = icmp eq ptr %18, null
  br i1 %.not37, label %19, label %20

19:                                               ; preds = %17, %6
  tail call void (ptr, ...) @exerror(ptr noundef nonnull @.str.29, i64 noundef %10) #25
  br label %.loopexit

20:                                               ; preds = %13, %17, %4
  %.029 = phi ptr [ %3, %4 ], [ %16, %13 ], [ %18, %17 ]
  %21 = getelementptr inbounds nuw i8, ptr %5, i64 8
  call void @llvm.memset.p0.i64(ptr noundef nonnull align 8 dereferenceable(104) %21, i8 0, i64 96, i1 false)
  store ptr @prformat, ptr %5, align 8, !tbaa !83
  %22 = getelementptr inbounds nuw i8, ptr %5, i64 64
  store ptr %0, ptr %22, align 8, !tbaa !87
  %23 = getelementptr inbounds nuw i8, ptr %5, i64 72
  store ptr %2, ptr %23, align 8, !tbaa !88
  %24 = getelementptr inbounds nuw i8, ptr %1, i64 40
  %25 = load ptr, ptr %24, align 8, !tbaa !3
  %26 = getelementptr inbounds nuw i8, ptr %25, i64 8
  %27 = load ptr, ptr %26, align 8, !tbaa !89
  %.not38 = icmp eq ptr %27, null
  br i1 %.not38, label %41, label %.preheader

.preheader:                                       ; preds = %20
  %28 = getelementptr inbounds nuw i8, ptr %5, i64 8
  %29 = getelementptr inbounds nuw i8, ptr %5, i64 80
  br label %30

30:                                               ; preds = %.preheader, %39
  %.030 = phi ptr [ %40, %39 ], [ %25, %.preheader ]
  %31 = getelementptr inbounds nuw i8, ptr %.030, i64 40
  %32 = load ptr, ptr %31, align 8, !tbaa !91
  %.not40 = icmp eq ptr %32, null
  %33 = getelementptr inbounds nuw i8, ptr %.030, i64 8
  %34 = load ptr, ptr %33, align 8, !tbaa !89
  br i1 %.not40, label %37, label %35

35:                                               ; preds = %30
  store ptr %34, ptr %28, align 8, !tbaa !92
  store ptr %.030, ptr %29, align 8, !tbaa !93
  %36 = call i32 @sfprint(ptr noundef nonnull %.029, ptr noundef nonnull %5) #25
  br label %39

37:                                               ; preds = %30
  %38 = call i32 @fputs(ptr noundef %34, ptr noundef nonnull %.029)
  br label %39

39:                                               ; preds = %35, %37
  %40 = load ptr, ptr %.030, align 8, !tbaa !94
  %.not41 = icmp eq ptr %40, null
  br i1 %.not41, label %.loopexit, label %30, !llvm.loop !95

41:                                               ; preds = %20
  %42 = getelementptr inbounds nuw i8, ptr %25, i64 40
  %43 = load ptr, ptr %42, align 8, !tbaa !91
  %44 = getelementptr inbounds nuw i8, ptr %43, i64 32
  %45 = load ptr, ptr %44, align 8, !tbaa !3
  %46 = tail call fastcc ptr @eval(ptr noundef %0, ptr noundef %45, ptr noundef %2)
  %47 = getelementptr inbounds nuw i8, ptr %5, i64 8
  store ptr %46, ptr %47, align 8, !tbaa !92
  %48 = load ptr, ptr %42, align 8, !tbaa !91
  %49 = getelementptr inbounds nuw i8, ptr %5, i64 96
  store ptr %48, ptr %49, align 8, !tbaa !96
  %50 = call i32 @sfprint(ptr noundef nonnull %.029, ptr noundef nonnull %5) #25
  %51 = load ptr, ptr %49, align 8, !tbaa !96
  %52 = getelementptr inbounds nuw i8, ptr %51, i64 40
  %53 = load ptr, ptr %52, align 8, !tbaa !3
  %.not39 = icmp eq ptr %53, null
  br i1 %.not39, label %.loopexit, label %54

54:                                               ; preds = %41
  %55 = load ptr, ptr %47, align 8, !tbaa !92
  call void (ptr, ...) @exerror(ptr noundef nonnull @.str.30, ptr noundef %55) #25
  br label %.loopexit

.loopexit:                                        ; preds = %39, %54, %41, %19
  %.0 = phi i32 [ -1, %19 ], [ 0, %41 ], [ 0, %54 ], [ 0, %39 ]
  call void @llvm.lifetime.end.p0(i64 104, ptr nonnull %5) #25
  ret i32 %.0
}